; ModuleID = '30/576.c'
source_filename = "30/576.c"
target datalayout = "e-m:e-p270:32:32-p271:32:32-p272:64:64-i64:64-f80:128-n8:16:32:64-S128"
target triple = "x86_64-pc-linux-gnu"

@.str = private unnamed_addr constant [3 x i8] c"%d\00", align 1

; Function Attrs: noinline nounwind uwtable
define dso_local i32 @main() #0 {
  %1 = alloca i32, align 4
  %2 = alloca i32, align 4
  %3 = alloca i32, align 4
  store i32 0, i32* %1, align 4
  store i32 0, i32* %3, align 4
  %4 = call i32 (i8*, ...) @__isoc99_scanf(i8* getelementptr inbounds ([3 x i8], [3 x i8]* @.str, i64 0, i64 0), i32* %2)
  br label %5

5:                                                ; preds = %41, %0
  %6 = load i32, i32* %2, align 4
  %7 = icmp sgt i32 %6, 0
  br i1 %7, label %8, label %44

8:                                                ; preds = %5
  %9 = load i32, i32* %2, align 4
  %10 = srem i32 %9, 7
  %11 = icmp eq i32 %10, 0
  br i1 %11, label %20, label %12

12:                                               ; preds = %8
  %13 = load i32, i32* %2, align 4
  %14 = srem i32 %13, 10
  %15 = icmp eq i32 %14, 7
  br i1 %15, label %20, label %16

16:                                               ; preds = %12
  %17 = load i32, i32* %2, align 4
  %18 = sdiv i32 %17, 10
  %19 = icmp eq i32 %18, 7
  br i1 %19, label %20, label %22

20:                                               ; preds = %16, %12, %8
  %21 = load i32, i32* %3, align 4
  store i32 %21, i32* %3, align 4
  br label %41

22:                                               ; preds = %16
  %23 = load i32, i32* %2, align 4
  %24 = srem i32 %23, 7
  %25 = icmp ne i32 %24, 0
  br i1 %25, label %26, label %40

26:                                               ; preds = %22
  %27 = load i32, i32* %2, align 4
  %28 = srem i32 %27, 10
  %29 = icmp ne i32 %28, 7
  br i1 %29, label %30, label %40

30:                                               ; preds = %26
  %31 = load i32, i32* %2, align 4
  %32 = sdiv i32 %31, 10
  %33 = icmp ne i32 %32, 7
  br i1 %33, label %34, label %40

34:                                               ; preds = %30
  %35 = load i32, i32* %3, align 4
  %36 = load i32, i32* %2, align 4
  %37 = load i32, i32* %2, align 4
  %38 = mul nsw i32 %36, %37
  %39 = add nsw i32 %35, %38
  store i32 %39, i32* %3, align 4
  br label %40

40:                                               ; preds = %34, %30, %26, %22
  br label %41

41:                                               ; preds = %40, %20
  %42 = load i32, i32* %2, align 4
  %43 = sub nsw i32 %42, 1
  store i32 %43, i32* %2, align 4
  br label %5

44:                                               ; preds = %5
  %45 = load i32, i32* %3, align 4
  %46 = call i32 (i8*, ...) @printf(i8* getelementptr inbounds ([3 x i8], [3 x i8]* @.str, i64 0, i64 0), i32 %45)
  ret i32 0
}

declare dso_local i32 @__isoc99_scanf(i8*, ...) #1

declare dso_local i32 @printf(i8*, ...) #1


!llvm.module.flags = !{!0}
!llvm.ident = !{!1}

!0 = !{i32 1, !"wchar_size", i32 4}
!1 = !{!"clang version 10.0.0-4ubuntu1 "}
